; Function Attrs: mustprogress nofree nounwind willreturn memory(read, inaccessiblemem: none) uwtable
define internal range(i32 0, 2) i32 @hashtable_unicode_compare(ptr noundef readonly %0, ptr noundef readonly %1) #22 {
  %3 = icmp ne ptr %0, null
  %4 = icmp ne ptr %1, null
  %or.cond = and i1 %3, %4
  br i1 %or.cond, label %5, label %29

5:                                                ; preds = %2
  %6 = getelementptr i8, ptr %0, i64 16
  %.val15.i = load i64, ptr %6, align 8, !tbaa !197
  %7 = getelementptr i8, ptr %1, i64 16
  %.val.i = load i64, ptr %7, align 8, !tbaa !197
  %.not.i = icmp eq i64 %.val.i, %.val15.i
  br i1 %.not.i, label %8, label %unicode_eq.exit

8:                                                ; preds = %5
  %9 = getelementptr inbounds nuw i8, ptr %0, i64 34
  %10 = load i16, ptr %9, align 2
  %11 = and i16 %10, 7
  %12 = getelementptr inbounds nuw i8, ptr %1, i64 34
  %13 = load i16, ptr %12, align 2
  %14 = and i16 %13, 7
  %.not14.i = icmp eq i16 %14, %11
  br i1 %.not14.i, label %15, label %unicode_eq.exit

15:                                               ; preds = %8
  %16 = and i16 %10, 8
  %.not.i.i = icmp eq i16 %16, 0
  br i1 %.not.i.i, label %19, label %17

17:                                               ; preds = %15
  %18 = and i16 %10, 16
  %.not.i.i.i = icmp eq i16 %18, 0
  %.0.v.i.i.i = select i1 %.not.i.i.i, i64 56, i64 40
  %.0.i.i.i = getelementptr i8, ptr %0, i64 %.0.v.i.i.i
  br label %_PyUnicode_DATA.exit.i

19:                                               ; preds = %15
  %20 = getelementptr i8, ptr %0, i64 56
  %.val4.i.i = load ptr, ptr %20, align 8, !tbaa !195
  br label %_PyUnicode_DATA.exit.i

_PyUnicode_DATA.exit.i:                           ; preds = %19, %17
  %.0.i.i = phi ptr [ %.0.i.i.i, %17 ], [ %.val4.i.i, %19 ]
  %21 = and i16 %13, 8
  %.not.i17.i = icmp eq i16 %21, 0
  br i1 %.not.i17.i, label %24, label %22

22:                                               ; preds = %_PyUnicode_DATA.exit.i
  %23 = and i16 %13, 16
  %.not.i.i18.i = icmp eq i16 %23, 0
  %.0.v.i.i19.i = select i1 %.not.i.i18.i, i64 56, i64 40
  %.0.i.i20.i = getelementptr i8, ptr %1, i64 %.0.v.i.i19.i
  br label %_PyUnicode_DATA.exit23.i

24:                                               ; preds = %_PyUnicode_DATA.exit.i
  %25 = getelementptr i8, ptr %1, i64 56
  %.val4.i22.i = load ptr, ptr %25, align 8, !tbaa !195
  br label %_PyUnicode_DATA.exit23.i

_PyUnicode_DATA.exit23.i:                         ; preds = %24, %22
  %.0.i21.i = phi ptr [ %.0.i.i20.i, %22 ], [ %.val4.i22.i, %24 ]
  %26 = zext nneg i16 %11 to i64
  %27 = mul i64 %.val15.i, %26
  %bcmp.i = tail call i32 @bcmp(ptr %.0.i.i, ptr %.0.i21.i, i64 %27)
  %28 = icmp eq i32 %bcmp.i, 0
  br label %unicode_eq.exit

29:                                               ; preds = %2
  %30 = icmp eq ptr %0, %1
  br label %unicode_eq.exit

unicode_eq.exit:                                  ; preds = %_PyUnicode_DATA.exit23.i, %8, %5, %29
  %.0.shrunk = phi i1 [ %30, %29 ], [ false, %5 ], [ %28, %_PyUnicode_DATA.exit23.i ], [ false, %8 ]
  %.0 = zext i1 %.0.shrunk to i32
  ret i32 %.0
}